target datalayout = "e-m:e-p270:32:32-p271:32:32-p272:64:64-i64:64-i128:128-f80:128-n8:16:32:64-S128"
target triple = "x86_64-pc-linux-gnu"

%struct.SwsPass = type { ptr, ptr, i32, i32, i32, i32, i32, ptr, %struct.SwsImg, ptr, ptr, ptr }
%struct.SwsImg = type { i32, [4 x ptr], [4 x i32] }
%struct.SwsContext = type { ptr, ptr, i32, [2 x double], i32, i32, i32, i32, i32, i32, i32, i32, i32, i32, i32, i32, i32, i32, i32, i32, i32 }
%struct.SwsInternal = type { %struct.SwsContext, ptr, ptr, ptr, ptr, i32, [2 x ptr], i32, i32, ptr, i32, i32, i32, i32, i32, i32, i32, i32, i32, i32, i32, i32, i32, i32, i32, i32, i32, i32, ptr, ptr, %struct.RangeList, [3 x ptr], [2 x [4 x i32]], [2 x [4 x ptr]], i32, double, i32, ptr, ptr, i32, [2 x i32], i32, ptr, ptr, [256 x i32], [256 x i32], [256 x float], i32, i32, ptr, i32, ptr, ptr, ptr, ptr, ptr, ptr, ptr, ptr, i32, i32, i32, i32, i32, i32, ptr, ptr, i32, i32, i32, ptr, [8 x i8], [1280 x i32], [1280 x ptr], [1280 x ptr], [1280 x ptr], [176 x i32], [4 x ptr], i32, i32, i32, [4 x i32], [4 x i32], i32, i32, i32, i32, i32, i32, i32, i32, i32, i32, i64, i64, i64, i64, i64, i64, i64, i64, i64, i64, i64, [1024 x i32], [1024 x i32], i32, i64, i64, i64, i64, i64, [1024 x i32], i64, i64, [8 x i16], [8 x i32], ptr, ptr, i32, ptr, ptr, ptr, ptr, [3 x [4 x i16]], [3 x [4 x i16]], ptr, ptr, ptr, ptr, ptr, ptr, ptr, ptr, ptr, ptr, ptr, ptr, ptr, ptr, ptr, ptr, ptr, ptr, ptr, ptr, i32, i32, i64, i64, i32, ptr, i32, ptr, i32, i32, i32, i32, i32, ptr }
%struct.RangeList = type { ptr, i32, i32 }

; Function Attrs: alwaysinline nounwind uwtable
define internal i32 @usePal(i32 noundef %0) #6 {
  %2 = alloca i32, align 4
  %3 = alloca i32, align 4
  store i32 %0, ptr %3, align 4, !tbaa !9
  %4 = load i32, ptr %3, align 4, !tbaa !9
  switch i32 %4, label %6 [
    i32 11, label %5
    i32 19, label %5
    i32 17, label %5
    i32 8, label %5
    i32 22, label %5
    i32 20, label %5
  ]

5:                                                ; preds = %1, %1, %1, %1, %1, %1
  store i32 1, ptr %2, align 4
  br label %7

6:                                                ; preds = %1
  store i32 0, ptr %2, align 4
  br label %7

7:                                                ; preds = %6, %5
  %8 = load i32, ptr %2, align 4
  ret i32 %8
}

; Function Attrs: inlinehint nounwind uwtable
define internal ptr @sws_internal(ptr noundef %0) #4 {
  %2 = alloca ptr, align 8
  store ptr %0, ptr %2, align 8, !tbaa !42
  %3 = load ptr, ptr %2, align 8, !tbaa !42
  ret ptr %3
}

; Function Attrs: nounwind uwtable
define internal void @setup_legacy_swscale(ptr noundef %0, ptr noundef %1, ptr noundef %2) #0 {
  %4 = alloca ptr, align 8
  %5 = alloca ptr, align 8
  %6 = alloca ptr, align 8
  %7 = alloca ptr, align 8
  %8 = alloca ptr, align 8
  %9 = alloca i32, align 4
  store ptr %0, ptr %4, align 8, !tbaa !59
  store ptr %1, ptr %5, align 8, !tbaa !59
  store ptr %2, ptr %6, align 8, !tbaa !11
  call void @llvm.lifetime.start.p0(i64 8, ptr %7) #11
  %10 = load ptr, ptr %6, align 8, !tbaa !11
  %11 = getelementptr inbounds nuw %struct.SwsPass, ptr %10, i32 0, i32 11
  %12 = load ptr, ptr %11, align 8, !tbaa !18
  store ptr %12, ptr %7, align 8, !tbaa !42
  call void @llvm.lifetime.start.p0(i64 8, ptr %8) #11
  %13 = load ptr, ptr %7, align 8, !tbaa !42
  %14 = call ptr @sws_internal(ptr noundef %13)
  store ptr %14, ptr %8, align 8, !tbaa !125
  %15 = load ptr, ptr %7, align 8, !tbaa !42
  %16 = getelementptr inbounds nuw %struct.SwsContext, ptr %15, i32 0, i32 2
  %17 = load i32, ptr %16, align 8, !tbaa !72
  %18 = and i32 %17, 524288
  %19 = icmp ne i32 %18, 0
  br i1 %19, label %20, label %53

20:                                               ; preds = %3
  %21 = load ptr, ptr %7, align 8, !tbaa !42
  %22 = getelementptr inbounds nuw %struct.SwsContext, ptr %21, i32 0, i32 5
  %23 = load i32, ptr %22, align 4, !tbaa !73
  %24 = icmp eq i32 %23, 3
  br i1 %24, label %25, label %53

25:                                               ; preds = %20
  %26 = load ptr, ptr %8, align 8, !tbaa !125
  %27 = getelementptr inbounds nuw %struct.SwsInternal, ptr %26, i32 0, i32 77
  %28 = getelementptr inbounds [4 x ptr], ptr %27, i64 0, i64 0
  %29 = load ptr, ptr %28, align 16, !tbaa !86
  %30 = icmp ne ptr %29, null
  br i1 %30, label %31, label %53

31:                                               ; preds = %25
  call void @llvm.lifetime.start.p0(i64 4, ptr %9) #11
  store i32 0, ptr %9, align 4, !tbaa !9
  br label %32

32:                                               ; preds = %49, %31
  %33 = load i32, ptr %9, align 4, !tbaa !9
  %34 = icmp slt i32 %33, 4
  br i1 %34, label %36, label %35

35:                                               ; preds = %32
  call void @llvm.lifetime.end.p0(i64 4, ptr %9) #11
  br label %52

36:                                               ; preds = %32
  %37 = load ptr, ptr %8, align 8, !tbaa !125
  %38 = getelementptr inbounds nuw %struct.SwsInternal, ptr %37, i32 0, i32 77
  %39 = load i32, ptr %9, align 4, !tbaa !9
  %40 = sext i32 %39 to i64
  %41 = getelementptr inbounds [4 x ptr], ptr %38, i64 0, i64 %40
  %42 = load ptr, ptr %41, align 8, !tbaa !86
  %43 = load ptr, ptr %7, align 8, !tbaa !42
  %44 = getelementptr inbounds nuw %struct.SwsContext, ptr %43, i32 0, i32 10
  %45 = load i32, ptr %44, align 8, !tbaa !104
  %46 = add nsw i32 %45, 2
  %47 = sext i32 %46 to i64
  %48 = mul i64 4, %47
  call void @llvm.memset.p0.i64(ptr align 4 %42, i8 0, i64 %48, i1 false)
  br label %49

49:                                               ; preds = %36
  %50 = load i32, ptr %9, align 4, !tbaa !9
  %51 = add nsw i32 %50, 1
  store i32 %51, ptr %9, align 4, !tbaa !9
  br label %32, !llvm.loop !153

52:                                               ; preds = %35
  br label %53

53:                                               ; preds = %52, %25, %20, %3
  %54 = load ptr, ptr %7, align 8, !tbaa !42
  %55 = getelementptr inbounds nuw %struct.SwsContext, ptr %54, i32 0, i32 12
  %56 = load i32, ptr %55, align 8, !tbaa !101
  %57 = call i32 @usePal(i32 noundef %56)
  %58 = icmp ne i32 %57, 0
  br i1 %58, label %59, label %65

59:                                               ; preds = %53
  %60 = load ptr, ptr %8, align 8, !tbaa !125
  %61 = load ptr, ptr %5, align 8, !tbaa !59
  %62 = getelementptr inbounds nuw %struct.SwsImg, ptr %61, i32 0, i32 1
  %63 = getelementptr inbounds [4 x ptr], ptr %62, i64 0, i64 1
  %64 = load ptr, ptr %63, align 8, !tbaa !68
  call void @ff_update_palette(ptr noundef %60, ptr noundef %64)
  br label %65

65:                                               ; preds = %59, %53
  call void @llvm.lifetime.end.p0(i64 8, ptr %8) #11
  call void @llvm.lifetime.end.p0(i64 8, ptr %7) #11
  ret void
}