; Function Attrs: nounwind uwtable
define internal void @setup_legacy_swscale(ptr readnone captures(none) %0, ptr noundef readonly captures(none) %1, ptr noundef readonly captures(none) %2) #0 {
  %4 = getelementptr inbounds nuw i8, ptr %2, i64 120
  %5 = load ptr, ptr %4, align 8, !tbaa !15
  %6 = getelementptr inbounds nuw i8, ptr %5, i64 16
  %7 = load i32, ptr %6, align 8, !tbaa !78
  %8 = and i32 %7, 524288
  %.not = icmp eq i32 %8, 0
  br i1 %.not, label %.loopexit, label %9

9:                                                ; preds = %3
  %10 = getelementptr inbounds nuw i8, ptr %5, i64 44
  %11 = load i32, ptr %10, align 4, !tbaa !79
  %12 = icmp eq i32 %11, 3
  br i1 %12, label %13, label %.loopexit

13:                                               ; preds = %9
  %14 = getelementptr inbounds nuw i8, ptr %5, i64 40256
  %15 = load ptr, ptr %14, align 16, !tbaa !108
  %.not12 = icmp eq ptr %15, null
  br i1 %.not12, label %.loopexit, label %.preheader

.preheader:                                       ; preds = %13
  %16 = getelementptr inbounds nuw i8, ptr %5, i64 64
  br label %17

17:                                               ; preds = %.preheader, %17
  %indvars.iv = phi i64 [ 0, %.preheader ], [ %indvars.iv.next, %17 ]
  %18 = getelementptr inbounds nuw [4 x ptr], ptr %14, i64 0, i64 %indvars.iv
  %19 = load ptr, ptr %18, align 8, !tbaa !108
  %20 = load i32, ptr %16, align 8, !tbaa !99
  %21 = add nsw i32 %20, 2
  %22 = sext i32 %21 to i64
  %23 = shl nsw i64 %22, 2
  tail call void @llvm.memset.p0.i64(ptr align 4 %19, i8 0, i64 %23, i1 false)
  %indvars.iv.next = add nuw nsw i64 %indvars.iv, 1
  %exitcond.not = icmp eq i64 %indvars.iv.next, 4
  br i1 %exitcond.not, label %.loopexit, label %17, !llvm.loop !158

.loopexit:                                        ; preds = %17, %13, %9, %3
  %24 = getelementptr inbounds nuw i8, ptr %5, i64 72
  %25 = load i32, ptr %24, align 8, !tbaa !97
  switch i32 %25, label %usePal.exit.thread [
    i32 11, label %usePal.exit
    i32 19, label %usePal.exit
    i32 17, label %usePal.exit
    i32 8, label %usePal.exit
    i32 22, label %usePal.exit
    i32 20, label %usePal.exit
  ]

usePal.exit:                                      ; preds = %.loopexit, %.loopexit, %.loopexit, %.loopexit, %.loopexit, %.loopexit
  %26 = getelementptr inbounds nuw i8, ptr %1, i64 16
  %27 = load ptr, ptr %26, align 8, !tbaa !75
  tail call void @ff_update_palette(ptr noundef nonnull %5, ptr noundef %27) #12
  br label %usePal.exit.thread

usePal.exit.thread:                               ; preds = %.loopexit, %usePal.exit
  ret void
}